; Function Attrs: null_pointer_is_valid sspstrong uwtable
define internal void @dissect_pfcp_linked_urr_id(ptr noundef %0, ptr noundef %1, ptr noundef %2, ptr noundef %3, i16 noundef zeroext %4, i8 zeroext %5, ptr readnone captures(none) %6) #0 {
  %8 = tail call i32 @tvb_get_uint32(ptr noundef %0, i32 noundef 0, i32 noundef 0)
  %9 = load i32, ptr @hf_pfcp_urr_id_flg, align 4
  %10 = tail call ptr @proto_tree_add_item(ptr noundef %2, i32 noundef %9, ptr noundef %0, i32 noundef 0, i32 noundef 4, i32 noundef 0)
  %11 = load i32, ptr @hf_pfcp_urr_id, align 4
  %12 = tail call ptr @proto_tree_add_item(ptr noundef %2, i32 noundef %11, ptr noundef %0, i32 noundef 0, i32 noundef 4, i32 noundef 0)
  %13 = icmp slt i32 %8, 0
  %14 = tail call ptr @tfs_get_string(i1 noundef zeroext %13, ptr noundef nonnull @pfcp_id_predef_dynamic_tfs)
  %15 = and i32 %8, 2147483647
  tail call void (ptr, ptr, ...) @proto_item_append_text(ptr noundef %3, ptr noundef nonnull @.str.2668, ptr noundef %14, i32 noundef %15)
  %16 = icmp ugt i16 %4, 4
  br i1 %16, label %17, label %19

17:                                               ; preds = %7
  %18 = tail call ptr @proto_tree_add_expert(ptr noundef %2, ptr noundef %1, ptr noundef nonnull @ei_pfcp_ie_data_not_decoded, ptr noundef %0, i32 noundef 4, i32 noundef -1)
  br label %19

19:                                               ; preds = %17, %7
  ret void
}